; Function Attrs: nounwind uwtable
define internal ptr @readline_write_history_file(ptr readnone captures(none) %0, ptr noundef readonly captures(none) %1, i64 noundef %2) #0 {
  %4 = alloca ptr, align 8
  %or.cond = icmp ult i64 %2, 2
  br i1 %or.cond, label %7, label %5

5:                                                ; preds = %3
  %6 = tail call i32 @_PyArg_CheckPositional(ptr noundef nonnull @.str.12, i64 noundef %2, i64 noundef 0, i64 noundef 1) #14
  %.not = icmp eq i32 %6, 0
  br i1 %.not, label %36, label %7

7:                                                ; preds = %3, %5
  %8 = icmp slt i64 %2, 1
  br i1 %8, label %.thread, label %9

.thread:                                          ; preds = %7
  call void @llvm.lifetime.start.p0(i64 8, ptr nonnull %4) #14
  br label %16

9:                                                ; preds = %7
  %10 = load ptr, ptr %1, align 8, !tbaa !41
  call void @llvm.lifetime.start.p0(i64 8, ptr nonnull %4) #14
  %.not.i = icmp eq ptr %10, @_Py_NoneStruct
  br i1 %.not.i, label %16, label %11

11:                                               ; preds = %9
  %12 = call i32 @PyUnicode_FSConverter(ptr noundef %10, ptr noundef nonnull %4) #14
  %.not10.i = icmp eq i32 %12, 0
  br i1 %.not10.i, label %readline_write_history_file_impl.exit, label %13

13:                                               ; preds = %11
  %14 = load ptr, ptr %4, align 8, !tbaa !41
  %15 = getelementptr inbounds nuw i8, ptr %14, i64 32
  br label %17

16:                                               ; preds = %.thread, %9
  store ptr null, ptr %4, align 8, !tbaa !41
  br label %17

17:                                               ; preds = %16, %13
  %.07.i = phi ptr [ %15, %13 ], [ null, %16 ]
  %18 = call i32 @write_history(ptr noundef %.07.i) #14
  %19 = tail call ptr @__errno_location() #16
  store i32 %18, ptr %19, align 4, !tbaa !17
  %20 = icmp eq i32 %18, 0
  %21 = load i32, ptr @_history_length, align 4
  %22 = icmp sgt i32 %21, -1
  %or.cond.i = select i1 %20, i1 %22, i1 false
  br i1 %or.cond.i, label %23, label %25

23:                                               ; preds = %17
  %24 = call i32 @history_truncate_file(ptr noundef %.07.i, i32 noundef %21) #14
  br label %25

25:                                               ; preds = %23, %17
  %26 = load ptr, ptr %4, align 8, !tbaa !41
  %.not.i.i = icmp eq ptr %26, null
  br i1 %.not.i.i, label %Py_XDECREF.exit.i, label %27

27:                                               ; preds = %25
  %28 = load i32, ptr %26, align 8, !tbaa !25
  %.not.i.i.i = icmp sgt i32 %28, -1
  br i1 %.not.i.i.i, label %29, label %Py_XDECREF.exit.i

29:                                               ; preds = %27
  %30 = add nsw i32 %28, -1
  store i32 %30, ptr %26, align 8, !tbaa !25
  %31 = icmp eq i32 %30, 0
  br i1 %31, label %32, label %Py_XDECREF.exit.i

32:                                               ; preds = %29
  call void @_Py_Dealloc(ptr noundef nonnull %26) #14
  br label %Py_XDECREF.exit.i

Py_XDECREF.exit.i:                                ; preds = %32, %29, %27, %25
  store i32 %18, ptr %19, align 4, !tbaa !17
  br i1 %20, label %readline_write_history_file_impl.exit, label %33

33:                                               ; preds = %Py_XDECREF.exit.i
  %34 = load ptr, ptr @PyExc_OSError, align 8, !tbaa !41
  %35 = call ptr @PyErr_SetFromErrno(ptr noundef %34) #14
  br label %readline_write_history_file_impl.exit

readline_write_history_file_impl.exit:            ; preds = %11, %Py_XDECREF.exit.i, %33
  %.0.i = phi ptr [ %35, %33 ], [ null, %11 ], [ @_Py_NoneStruct, %Py_XDECREF.exit.i ]
  call void @llvm.lifetime.end.p0(i64 8, ptr nonnull %4) #14
  br label %36

36:                                               ; preds = %5, %readline_write_history_file_impl.exit
  %.08 = phi ptr [ %.0.i, %readline_write_history_file_impl.exit ], [ null, %5 ]
  ret ptr %.08
}